; Function Attrs: mustprogress uwtable
define void @_ZNK5Ipopt14DenseGenMatrix23CholeskyBackSolveMatrixEbdRS0_(ptr noundef nonnull readonly align 8 captures(none) dereferenceable(104) %0, i1 noundef zeroext %1, double noundef %2, ptr noundef nonnull align 8 dereferenceable(104) initializes((88, 89)) %3) local_unnamed_addr #2 align 2 {
  %5 = getelementptr inbounds nuw i8, ptr %0, i64 56
  %6 = load ptr, ptr %5, align 8, !tbaa !6
  %7 = getelementptr inbounds nuw i8, ptr %6, i64 12
  %8 = load i32, ptr %7, align 4, !tbaa !33
  %9 = getelementptr inbounds nuw i8, ptr %3, i64 56
  %10 = load ptr, ptr %9, align 8, !tbaa !6
  %11 = getelementptr inbounds nuw i8, ptr %10, i64 16
  %12 = load i32, ptr %11, align 8, !tbaa !31
  %13 = getelementptr inbounds nuw i8, ptr %0, i64 80
  %14 = load ptr, ptr %13, align 8, !tbaa !34
  %15 = getelementptr inbounds nuw i8, ptr %3, i64 88
  store i8 1, ptr %15, align 8, !tbaa !35
  tail call void @_ZN5Ipopt12TaggedObject13ObjectChangedEv(ptr noundef nonnull align 8 dereferenceable(104) %3)
  %16 = getelementptr inbounds nuw i8, ptr %3, i64 80
  %17 = load ptr, ptr %16, align 8, !tbaa !34
  %18 = load ptr, ptr %9, align 8, !tbaa !6
  %19 = getelementptr inbounds nuw i8, ptr %18, i64 12
  %20 = load i32, ptr %19, align 4, !tbaa !33
  tail call void @_ZN5Ipopt10IpBlasTrsmEbiidPKdiPdi(i1 noundef zeroext %1, i32 noundef %8, i32 noundef %12, double noundef %2, ptr noundef %14, i32 noundef %8, ptr noundef %17, i32 noundef %20)
  ret void
}